target datalayout = "e-m:e-p270:32:32-p271:32:32-p272:64:64-i64:64-i128:128-f80:128-n8:16:32:64-S128"
target triple = "x86_64-pc-linux-gnu"

%"class.duckdb_re2::PODArray" = type { %"class.std::unique_ptr" }
%"class.std::unique_ptr" = type { %"struct.std::__uniq_ptr_data" }
%"struct.std::__uniq_ptr_data" = type { %"class.std::__uniq_ptr_impl" }
%"class.std::__uniq_ptr_impl" = type { %"class.std::tuple" }
%"class.std::tuple" = type { %"struct.std::_Tuple_impl" }
%"struct.std::_Tuple_impl" = type { %"struct.std::_Tuple_impl.0", %"struct.std::_Head_base.1" }
%"struct.std::_Tuple_impl.0" = type { %"struct.std::_Head_base" }
%"struct.std::_Head_base" = type { %"struct.duckdb_re2::PODArray<int>::Deleter" }
%"struct.duckdb_re2::PODArray<int>::Deleter" = type { i32 }
%"struct.std::_Head_base.1" = type { ptr }
%"class.duckdb_re2::DFA::Workq" = type <{ %"class.duckdb_re2::SparseSetT", i32, i32, i32, i8, [3 x i8] }>
%"class.duckdb_re2::SparseSetT" = type { i32, %"class.duckdb_re2::PODArray", %"class.duckdb_re2::PODArray" }

; Function Attrs: mustprogress nounwind uwtable
define linkonce_odr noundef nonnull align 8 dereferenceable(8) ptr @_ZNSt10_Head_baseILm0EPiLb0EE7_M_headERKS1_(ptr noundef nonnull align 8 dereferenceable(8) %0) #0 comdat align 2 {
  %2 = alloca ptr, align 8
  store ptr %0, ptr %2, align 8, !tbaa !345
  %3 = load ptr, ptr %2, align 8, !tbaa !345
  %4 = getelementptr inbounds nuw %"struct.std::_Head_base.1", ptr %3, i32 0, i32 0
  ret ptr %4
}

; Function Attrs: mustprogress nounwind uwtable
define linkonce_odr hidden noundef nonnull align 8 dereferenceable(8) ptr @_ZNSt11_Tuple_implILm0EJPiN10duckdb_re28PODArrayIiE7DeleterEEE7_M_headERKS5_(ptr noundef nonnull align 8 dereferenceable(16) %0) #0 comdat align 2 {
  %2 = alloca ptr, align 8
  store ptr %0, ptr %2, align 8, !tbaa !343
  %3 = load ptr, ptr %2, align 8, !tbaa !343
  %4 = getelementptr inbounds i8, ptr %3, i64 8
  %5 = call noundef nonnull align 8 dereferenceable(8) ptr @_ZNSt10_Head_baseILm0EPiLb0EE7_M_headERKS1_(ptr noundef nonnull align 8 dereferenceable(8) %4) #17
  ret ptr %5
}

; Function Attrs: mustprogress nounwind uwtable
define linkonce_odr hidden noundef nonnull align 8 dereferenceable(8) ptr @_ZSt12__get_helperILm0EPiJN10duckdb_re28PODArrayIiE7DeleterEEERKT0_RKSt11_Tuple_implIXT_EJS5_DpT1_EE(ptr noundef nonnull align 8 dereferenceable(16) %0) #0 comdat {
  %2 = alloca ptr, align 8
  store ptr %0, ptr %2, align 8, !tbaa !343
  %3 = load ptr, ptr %2, align 8, !tbaa !343
  %4 = call noundef nonnull align 8 dereferenceable(8) ptr @_ZNSt11_Tuple_implILm0EJPiN10duckdb_re28PODArrayIiE7DeleterEEE7_M_headERKS5_(ptr noundef nonnull align 8 dereferenceable(16) %3) #17
  ret ptr %4
}

; Function Attrs: mustprogress nounwind uwtable
define linkonce_odr hidden noundef nonnull align 8 dereferenceable(8) ptr @_ZSt3getILm0EJPiN10duckdb_re28PODArrayIiE7DeleterEEERKNSt13tuple_elementIXT_ESt5tupleIJDpT0_EEE4typeERKS9_(ptr noundef nonnull align 8 dereferenceable(16) %0) #0 comdat {
  %2 = alloca ptr, align 8
  store ptr %0, ptr %2, align 8, !tbaa !341
  %3 = load ptr, ptr %2, align 8, !tbaa !341
  %4 = call noundef nonnull align 8 dereferenceable(8) ptr @_ZSt12__get_helperILm0EPiJN10duckdb_re28PODArrayIiE7DeleterEEERKT0_RKSt11_Tuple_implIXT_EJS5_DpT1_EE(ptr noundef nonnull align 8 dereferenceable(16) %3) #17
  ret ptr %4
}

; Function Attrs: mustprogress nounwind uwtable
define linkonce_odr hidden noundef ptr @_ZNKSt15__uniq_ptr_implIiN10duckdb_re28PODArrayIiE7DeleterEE6_M_ptrEv(ptr noundef nonnull align 8 dereferenceable(16) %0) #0 comdat align 2 {
  %2 = alloca ptr, align 8
  store ptr %0, ptr %2, align 8, !tbaa !335
  %3 = load ptr, ptr %2, align 8
  %4 = getelementptr inbounds nuw %"class.std::__uniq_ptr_impl", ptr %3, i32 0, i32 0
  %5 = call noundef nonnull align 8 dereferenceable(8) ptr @_ZSt3getILm0EJPiN10duckdb_re28PODArrayIiE7DeleterEEERKNSt13tuple_elementIXT_ESt5tupleIJDpT0_EEE4typeERKS9_(ptr noundef nonnull align 8 dereferenceable(16) %4) #17
  %6 = load ptr, ptr %5, align 8, !tbaa !113
  ret ptr %6
}

; Function Attrs: mustprogress nounwind uwtable
define linkonce_odr hidden noundef ptr @_ZNKSt10unique_ptrIA_iN10duckdb_re28PODArrayIiE7DeleterEE3getEv(ptr noundef nonnull align 8 dereferenceable(16) %0) #0 comdat align 2 {
  %2 = alloca ptr, align 8
  store ptr %0, ptr %2, align 8, !tbaa !331
  %3 = load ptr, ptr %2, align 8
  %4 = getelementptr inbounds nuw %"class.std::unique_ptr", ptr %3, i32 0, i32 0
  %5 = call noundef ptr @_ZNKSt15__uniq_ptr_implIiN10duckdb_re28PODArrayIiE7DeleterEE6_M_ptrEv(ptr noundef nonnull align 8 dereferenceable(16) %4) #17
  ret ptr %5
}

; Function Attrs: mustprogress nounwind uwtable
define linkonce_odr hidden noundef ptr @_ZNK10duckdb_re28PODArrayIiE4dataEv(ptr noundef nonnull align 8 dereferenceable(16) %0) #0 comdat align 2 {
  %2 = alloca ptr, align 8
  store ptr %0, ptr %2, align 8, !tbaa !50
  %3 = load ptr, ptr %2, align 8
  %4 = getelementptr inbounds nuw %"class.duckdb_re2::PODArray", ptr %3, i32 0, i32 0
  %5 = call noundef ptr @_ZNKSt10unique_ptrIA_iN10duckdb_re28PODArrayIiE7DeleterEE3getEv(ptr noundef nonnull align 8 dereferenceable(16) %4) #17
  ret ptr %5
}

; Function Attrs: mustprogress nounwind uwtable
define linkonce_odr hidden void @_ZN10duckdb_re210SparseSetTIvE5clearEv(ptr noundef nonnull align 8 dereferenceable(40) %0) #0 comdat align 2 {
  %2 = alloca ptr, align 8
  store ptr %0, ptr %2, align 8, !tbaa !103
  %3 = load ptr, ptr %2, align 8
  %4 = getelementptr inbounds nuw %"class.duckdb_re2::SparseSetT", ptr %3, i32 0, i32 0
  store i32 0, ptr %4, align 8, !tbaa !117
  ret void
}

; Function Attrs: mustprogress nounwind uwtable
define linkonce_odr hidden noundef zeroext i1 @_ZN10duckdb_re23DFA5Workq7is_markEi(ptr noundef nonnull align 8 dereferenceable(53) %0, i32 noundef %1) #0 comdat align 2 {
  %3 = alloca ptr, align 8
  %4 = alloca i32, align 4
  store ptr %0, ptr %3, align 8, !tbaa !96
  store i32 %1, ptr %4, align 4, !tbaa !46
  %5 = load ptr, ptr %3, align 8
  %6 = load i32, ptr %4, align 4, !tbaa !46
  %7 = getelementptr inbounds nuw %"class.duckdb_re2::DFA::Workq", ptr %5, i32 0, i32 1
  %8 = load i32, ptr %7, align 8, !tbaa !97
  %9 = icmp sge i32 %6, %8
  ret i1 %9
}

; Function Attrs: mustprogress uwtable
define linkonce_odr hidden noundef ptr @_ZN10duckdb_re210SparseSetTIvE3endEv(ptr noundef nonnull align 8 dereferenceable(40) %0) #1 comdat align 2 {
  %2 = alloca ptr, align 8
  store ptr %0, ptr %2, align 8, !tbaa !103
  %3 = load ptr, ptr %2, align 8
  %4 = getelementptr inbounds nuw %"class.duckdb_re2::SparseSetT", ptr %3, i32 0, i32 2
  %5 = call noundef ptr @_ZNK10duckdb_re28PODArrayIiE4dataEv(ptr noundef nonnull align 8 dereferenceable(16) %4)
  %6 = getelementptr inbounds nuw %"class.duckdb_re2::SparseSetT", ptr %3, i32 0, i32 0
  %7 = load i32, ptr %6, align 8, !tbaa !117
  %8 = sext i32 %7 to i64
  %9 = getelementptr inbounds i32, ptr %5, i64 %8
  ret ptr %9
}

; Function Attrs: mustprogress uwtable
define linkonce_odr hidden noundef ptr @_ZN10duckdb_re210SparseSetTIvE5beginEv(ptr noundef nonnull align 8 dereferenceable(40) %0) #1 comdat align 2 {
  %2 = alloca ptr, align 8
  store ptr %0, ptr %2, align 8, !tbaa !103
  %3 = load ptr, ptr %2, align 8
  %4 = getelementptr inbounds nuw %"class.duckdb_re2::SparseSetT", ptr %3, i32 0, i32 2
  %5 = call noundef ptr @_ZNK10duckdb_re28PODArrayIiE4dataEv(ptr noundef nonnull align 8 dereferenceable(16) %4)
  ret ptr %5
}

; Function Attrs: mustprogress uwtable
define linkonce_odr hidden void @_ZN10duckdb_re23DFA5Workq5clearEv(ptr noundef nonnull align 8 dereferenceable(53) %0) #1 comdat align 2 {
  %2 = alloca ptr, align 8
  store ptr %0, ptr %2, align 8, !tbaa !96
  %3 = load ptr, ptr %2, align 8
  call void @_ZN10duckdb_re210SparseSetTIvE5clearEv(ptr noundef nonnull align 8 dereferenceable(40) %3)
  %4 = getelementptr inbounds nuw %"class.duckdb_re2::DFA::Workq", ptr %3, i32 0, i32 1
  %5 = load i32, ptr %4, align 8, !tbaa !97
  %6 = getelementptr inbounds nuw %"class.duckdb_re2::DFA::Workq", ptr %3, i32 0, i32 3
  store i32 %5, ptr %6, align 8, !tbaa !101
  ret void
}

; Function Attrs: mustprogress uwtable
define hidden void @_ZN10duckdb_re23DFA21RunWorkqOnEmptyStringEPNS0_5WorkqES2_j(ptr noundef nonnull align 8 dereferenceable(296) %0, ptr noundef %1, ptr noundef %2, i32 noundef %3) #1 align 2 {
  %5 = alloca ptr, align 8
  %6 = alloca ptr, align 8
  %7 = alloca ptr, align 8
  %8 = alloca i32, align 4
  %9 = alloca ptr, align 8
  store ptr %0, ptr %5, align 8, !tbaa !9
  store ptr %1, ptr %6, align 8, !tbaa !96
  store ptr %2, ptr %7, align 8, !tbaa !96
  store i32 %3, ptr %8, align 4, !tbaa !46
  %10 = load ptr, ptr %5, align 8
  %11 = load ptr, ptr %7, align 8, !tbaa !96
  call void @_ZN10duckdb_re23DFA5Workq5clearEv(ptr noundef nonnull align 8 dereferenceable(53) %11)
  call void @llvm.lifetime.start.p0(i64 8, ptr %9) #17
  %12 = load ptr, ptr %6, align 8, !tbaa !96
  %13 = call noundef ptr @_ZN10duckdb_re210SparseSetTIvE5beginEv(ptr noundef nonnull align 8 dereferenceable(40) %12)
  store ptr %13, ptr %9, align 8, !tbaa !113
  br label %14

14:                                               ; preds = %34, %4
  %15 = load ptr, ptr %9, align 8, !tbaa !113
  %16 = load ptr, ptr %6, align 8, !tbaa !96
  %17 = call noundef ptr @_ZN10duckdb_re210SparseSetTIvE3endEv(ptr noundef nonnull align 8 dereferenceable(40) %16)
  %18 = icmp ne ptr %15, %17
  br i1 %18, label %20, label %19

19:                                               ; preds = %14
  call void @llvm.lifetime.end.p0(i64 8, ptr %9) #17
  br label %37

20:                                               ; preds = %14
  %21 = load ptr, ptr %6, align 8, !tbaa !96
  %22 = load ptr, ptr %9, align 8, !tbaa !113
  %23 = load i32, ptr %22, align 4, !tbaa !46
  %24 = call noundef zeroext i1 @_ZN10duckdb_re23DFA5Workq7is_markEi(ptr noundef nonnull align 8 dereferenceable(53) %21, i32 noundef %23)
  br i1 %24, label %25, label %28

25:                                               ; preds = %20
  %26 = load ptr, ptr %7, align 8, !tbaa !96
  %27 = load i32, ptr %8, align 4, !tbaa !46
  call void @_ZN10duckdb_re23DFA10AddToQueueEPNS0_5WorkqEij(ptr noundef nonnull align 8 dereferenceable(296) %10, ptr noundef %26, i32 noundef -1, i32 noundef %27)
  br label %33

28:                                               ; preds = %20
  %29 = load ptr, ptr %7, align 8, !tbaa !96
  %30 = load ptr, ptr %9, align 8, !tbaa !113
  %31 = load i32, ptr %30, align 4, !tbaa !46
  %32 = load i32, ptr %8, align 4, !tbaa !46
  call void @_ZN10duckdb_re23DFA10AddToQueueEPNS0_5WorkqEij(ptr noundef nonnull align 8 dereferenceable(296) %10, ptr noundef %29, i32 noundef %31, i32 noundef %32)
  br label %33

33:                                               ; preds = %28, %25
  br label %34

34:                                               ; preds = %33
  %35 = load ptr, ptr %9, align 8, !tbaa !113
  %36 = getelementptr inbounds nuw i32, ptr %35, i32 1
  store ptr %36, ptr %9, align 8, !tbaa !113
  br label %14, !llvm.loop !168

37:                                               ; preds = %19
  ret void
}