; Function Attrs: mustprogress uwtable
define hidden void @_ZN10duckdb_re23DFA21RunWorkqOnEmptyStringEPNS0_5WorkqES2_j(ptr noundef nonnull readonly align 8 captures(none) dereferenceable(296) %0, ptr noundef readonly captures(none) %1, ptr noundef captures(none) initializes((0, 4), (48, 52)) %2, i32 noundef %3) local_unnamed_addr #1 align 2 {
  store i32 0, ptr %2, align 8, !tbaa !81
  %5 = getelementptr inbounds nuw i8, ptr %2, i64 40
  %6 = load i32, ptr %5, align 8, !tbaa !86
  %7 = getelementptr inbounds nuw i8, ptr %2, i64 48
  store i32 %6, ptr %7, align 8, !tbaa !89
  %8 = getelementptr inbounds nuw i8, ptr %1, i64 32
  %9 = load i32, ptr %1, align 8, !tbaa !81
  %.not13 = icmp eq i32 %9, 0
  br i1 %.not13, label %._crit_edge, label %.lr.ph

.lr.ph:                                           ; preds = %4
  %10 = load ptr, ptr %8, align 8, !tbaa !85
  %11 = getelementptr inbounds nuw i8, ptr %1, i64 40
  br label %12

._crit_edge:                                      ; preds = %12, %4
  ret void

12:                                               ; preds = %.lr.ph, %12
  %.014 = phi ptr [ %10, %.lr.ph ], [ %15, %12 ]
  %13 = load i32, ptr %.014, align 4, !tbaa !77
  %14 = load i32, ptr %11, align 8, !tbaa !86
  %.not12 = icmp slt i32 %13, %14
  %. = select i1 %.not12, i32 %13, i32 -1
  tail call void @_ZN10duckdb_re23DFA10AddToQueueEPNS0_5WorkqEij(ptr noundef nonnull align 8 dereferenceable(296) %0, ptr noundef nonnull %2, i32 noundef %., i32 noundef %3)
  %15 = getelementptr inbounds nuw i8, ptr %.014, i64 4
  %16 = load ptr, ptr %8, align 8, !tbaa !85
  %17 = load i32, ptr %1, align 8, !tbaa !81
  %18 = sext i32 %17 to i64
  %19 = getelementptr inbounds i32, ptr %16, i64 %18
  %.not = icmp eq ptr %15, %19
  br i1 %.not, label %._crit_edge, label %12, !llvm.loop !147
}